; ModuleID = '20/112.c'
source_filename = "20/112.c"
target datalayout = "e-m:e-p270:32:32-p271:32:32-p272:64:64-i64:64-f80:128-n8:16:32:64-S128"
target triple = "x86_64-pc-linux-gnu"

@.str = private unnamed_addr constant [4 x i8] c"%s\0A\00", align 1

; Function Attrs: noinline nounwind uwtable
define dso_local void @main() #0 {
  %1 = alloca [1000 x [13 x i8]], align 16
  %2 = alloca [1000 x [17 x i8]], align 16
  %3 = alloca [1000 x [3 x i8]], align 16
  %4 = alloca i32, align 4
  %5 = alloca i32, align 4
  %6 = alloca i32, align 4
  %7 = alloca i32, align 4
  %8 = alloca i32, align 4
  store i32 0, i32* %4, align 4
  store i32 0, i32* %5, align 4
  store i32 0, i32* %5, align 4
  br label %9

9:                                                ; preds = %99, %0
  %10 = load i32, i32* %5, align 4
  %11 = icmp slt i32 %10, 1000
  br i1 %11, label %12, label %102

12:                                               ; preds = %9
  %13 = load i32, i32* %5, align 4
  %14 = sext i32 %13 to i64
  %15 = getelementptr inbounds [1000 x [17 x i8]], [1000 x [17 x i8]]* %2, i64 0, i64 %14
  %16 = getelementptr inbounds [17 x i8], [17 x i8]* %15, i64 0, i64 0
  %17 = call i32 (i8*, ...) bitcast (i32 (...)* @gets to i32 (i8*, ...)*)(i8* %16)
  %18 = load i32, i32* %5, align 4
  %19 = sext i32 %18 to i64
  %20 = getelementptr inbounds [1000 x [17 x i8]], [1000 x [17 x i8]]* %2, i64 0, i64 %19
  %21 = getelementptr inbounds [17 x i8], [17 x i8]* %20, i64 0, i64 0
  %22 = load i8, i8* %21, align 1
  %23 = sext i8 %22 to i32
  %24 = icmp eq i32 %23, 0
  br i1 %24, label %25, label %27

25:                                               ; preds = %12
  %26 = load i32, i32* %5, align 4
  store i32 %26, i32* %4, align 4
  br label %102

27:                                               ; preds = %12
  store i32 0, i32* %6, align 4
  br label %28

28:                                               ; preds = %95, %27
  %29 = load i32, i32* %6, align 4
  %30 = icmp slt i32 %29, 17
  br i1 %30, label %31, label %98

31:                                               ; preds = %28
  %32 = load i32, i32* %5, align 4
  %33 = sext i32 %32 to i64
  %34 = getelementptr inbounds [1000 x [17 x i8]], [1000 x [17 x i8]]* %2, i64 0, i64 %33
  %35 = load i32, i32* %6, align 4
  %36 = sext i32 %35 to i64
  %37 = getelementptr inbounds [17 x i8], [17 x i8]* %34, i64 0, i64 %36
  %38 = load i8, i8* %37, align 1
  %39 = sext i8 %38 to i32
  %40 = icmp eq i32 %39, 32
  br i1 %40, label %41, label %94

41:                                               ; preds = %31
  store i32 0, i32* %8, align 4
  br label %42

42:                                               ; preds = %66, %41
  %43 = load i32, i32* %8, align 4
  %44 = load i32, i32* %6, align 4
  %45 = icmp slt i32 %43, %44
  br i1 %45, label %46, label %69

46:                                               ; preds = %42
  %47 = load i32, i32* %5, align 4
  %48 = sext i32 %47 to i64
  %49 = getelementptr inbounds [1000 x [17 x i8]], [1000 x [17 x i8]]* %2, i64 0, i64 %48
  %50 = load i32, i32* %8, align 4
  %51 = sext i32 %50 to i64
  %52 = getelementptr inbounds [17 x i8], [17 x i8]* %49, i64 0, i64 %51
  %53 = load i8, i8* %52, align 1
  %54 = load i32, i32* %5, align 4
  %55 = sext i32 %54 to i64
  %56 = getelementptr inbounds [1000 x [13 x i8]], [1000 x [13 x i8]]* %1, i64 0, i64 %55
  %57 = load i32, i32* %8, align 4
  %58 = sext i32 %57 to i64
  %59 = getelementptr inbounds [13 x i8], [13 x i8]* %56, i64 0, i64 %58
  store i8 %53, i8* %59, align 1
  %60 = load i32, i32* %5, align 4
  %61 = sext i32 %60 to i64
  %62 = getelementptr inbounds [1000 x [13 x i8]], [1000 x [13 x i8]]* %1, i64 0, i64 %61
  %63 = load i32, i32* %6, align 4
  %64 = sext i32 %63 to i64
  %65 = getelementptr inbounds [13 x i8], [13 x i8]* %62, i64 0, i64 %64
  store i8 0, i8* %65, align 1
  br label %66

66:                                               ; preds = %46
  %67 = load i32, i32* %8, align 4
  %68 = add nsw i32 %67, 1
  store i32 %68, i32* %8, align 4
  br label %42

69:                                               ; preds = %42
  store i32 0, i32* %8, align 4
  br label %70

70:                                               ; preds = %90, %69
  %71 = load i32, i32* %8, align 4
  %72 = icmp slt i32 %71, 3
  br i1 %72, label %73, label %93

73:                                               ; preds = %70
  %74 = load i32, i32* %5, align 4
  %75 = sext i32 %74 to i64
  %76 = getelementptr inbounds [1000 x [17 x i8]], [1000 x [17 x i8]]* %2, i64 0, i64 %75
  %77 = load i32, i32* %8, align 4
  %78 = load i32, i32* %6, align 4
  %79 = add nsw i32 %77, %78
  %80 = add nsw i32 %79, 1
  %81 = sext i32 %80 to i64
  %82 = getelementptr inbounds [17 x i8], [17 x i8]* %76, i64 0, i64 %81
  %83 = load i8, i8* %82, align 1
  %84 = load i32, i32* %5, align 4
  %85 = sext i32 %84 to i64
  %86 = getelementptr inbounds [1000 x [3 x i8]], [1000 x [3 x i8]]* %3, i64 0, i64 %85
  %87 = load i32, i32* %8, align 4
  %88 = sext i32 %87 to i64
  %89 = getelementptr inbounds [3 x i8], [3 x i8]* %86, i64 0, i64 %88
  store i8 %83, i8* %89, align 1
  br label %90

90:                                               ; preds = %73
  %91 = load i32, i32* %8, align 4
  %92 = add nsw i32 %91, 1
  store i32 %92, i32* %8, align 4
  br label %70

93:                                               ; preds = %70
  br label %94

94:                                               ; preds = %93, %31
  br label %95

95:                                               ; preds = %94
  %96 = load i32, i32* %6, align 4
  %97 = add nsw i32 %96, 1
  store i32 %97, i32* %6, align 4
  br label %28

98:                                               ; preds = %28
  br label %99

99:                                               ; preds = %98
  %100 = load i32, i32* %5, align 4
  %101 = add nsw i32 %100, 1
  store i32 %101, i32* %5, align 4
  br label %9

102:                                              ; preds = %25, %9
  store i32 0, i32* %5, align 4
  br label %103

103:                                              ; preds = %189, %102
  %104 = load i32, i32* %5, align 4
  %105 = load i32, i32* %4, align 4
  %106 = icmp slt i32 %104, %105
  br i1 %106, label %107, label %192

107:                                              ; preds = %103
  store i32 0, i32* %7, align 4
  store i32 0, i32* %6, align 4
  br label %108

108:                                              ; preds = %138, %107
  %109 = load i32, i32* %6, align 4
  %110 = load i32, i32* %5, align 4
  %111 = sext i32 %110 to i64
  %112 = getelementptr inbounds [1000 x [13 x i8]], [1000 x [13 x i8]]* %1, i64 0, i64 %111
  %113 = getelementptr inbounds [13 x i8], [13 x i8]* %112, i64 0, i64 0
  %114 = call i64 @strlen(i8* %113) #3
  %115 = trunc i64 %114 to i32
  %116 = icmp slt i32 %109, %115
  br i1 %116, label %117, label %141

117:                                              ; preds = %108
  %118 = load i32, i32* %5, align 4
  %119 = sext i32 %118 to i64
  %120 = getelementptr inbounds [1000 x [13 x i8]], [1000 x [13 x i8]]* %1, i64 0, i64 %119
  %121 = load i32, i32* %6, align 4
  %122 = sext i32 %121 to i64
  %123 = getelementptr inbounds [13 x i8], [13 x i8]* %120, i64 0, i64 %122
  %124 = load i8, i8* %123, align 1
  %125 = sext i8 %124 to i32
  %126 = load i32, i32* %5, align 4
  %127 = sext i32 %126 to i64
  %128 = getelementptr inbounds [1000 x [13 x i8]], [1000 x [13 x i8]]* %1, i64 0, i64 %127
  %129 = load i32, i32* %7, align 4
  %130 = sext i32 %129 to i64
  %131 = getelementptr inbounds [13 x i8], [13 x i8]* %128, i64 0, i64 %130
  %132 = load i8, i8* %131, align 1
  %133 = sext i8 %132 to i32
  %134 = icmp sgt i32 %125, %133
  br i1 %134, label %135, label %137

135:                                              ; preds = %117
  %136 = load i32, i32* %6, align 4
  store i32 %136, i32* %7, align 4
  br label %137

137:                                              ; preds = %135, %117
  br label %138

138:                                              ; preds = %137
  %139 = load i32, i32* %6, align 4
  %140 = add nsw i32 %139, 1
  store i32 %140, i32* %6, align 4
  br label %108

141:                                              ; preds = %108
  store i32 9, i32* %6, align 4
  br label %142

142:                                              ; preds = %161, %141
  %143 = load i32, i32* %6, align 4
  %144 = load i32, i32* %7, align 4
  %145 = icmp sgt i32 %143, %144
  br i1 %145, label %146, label %164

146:                                              ; preds = %142
  %147 = load i32, i32* %5, align 4
  %148 = sext i32 %147 to i64
  %149 = getelementptr inbounds [1000 x [13 x i8]], [1000 x [13 x i8]]* %1, i64 0, i64 %148
  %150 = load i32, i32* %6, align 4
  %151 = sext i32 %150 to i64
  %152 = getelementptr inbounds [13 x i8], [13 x i8]* %149, i64 0, i64 %151
  %153 = load i8, i8* %152, align 1
  %154 = load i32, i32* %5, align 4
  %155 = sext i32 %154 to i64
  %156 = getelementptr inbounds [1000 x [13 x i8]], [1000 x [13 x i8]]* %1, i64 0, i64 %155
  %157 = load i32, i32* %6, align 4
  %158 = add nsw i32 %157, 3
  %159 = sext i32 %158 to i64
  %160 = getelementptr inbounds [13 x i8], [13 x i8]* %156, i64 0, i64 %159
  store i8 %153, i8* %160, align 1
  br label %161

161:                                              ; preds = %146
  %162 = load i32, i32* %6, align 4
  %163 = add nsw i32 %162, -1
  store i32 %163, i32* %6, align 4
  br label %142

164:                                              ; preds = %142
  store i32 0, i32* %6, align 4
  br label %165

165:                                              ; preds = %185, %164
  %166 = load i32, i32* %6, align 4
  %167 = icmp slt i32 %166, 3
  br i1 %167, label %168, label %188

168:                                              ; preds = %165
  %169 = load i32, i32* %5, align 4
  %170 = sext i32 %169 to i64
  %171 = getelementptr inbounds [1000 x [3 x i8]], [1000 x [3 x i8]]* %3, i64 0, i64 %170
  %172 = load i32, i32* %6, align 4
  %173 = sext i32 %172 to i64
  %174 = getelementptr inbounds [3 x i8], [3 x i8]* %171, i64 0, i64 %173
  %175 = load i8, i8* %174, align 1
  %176 = load i32, i32* %5, align 4
  %177 = sext i32 %176 to i64
  %178 = getelementptr inbounds [1000 x [13 x i8]], [1000 x [13 x i8]]* %1, i64 0, i64 %177
  %179 = load i32, i32* %7, align 4
  %180 = load i32, i32* %6, align 4
  %181 = add nsw i32 %179, %180
  %182 = add nsw i32 %181, 1
  %183 = sext i32 %182 to i64
  %184 = getelementptr inbounds [13 x i8], [13 x i8]* %178, i64 0, i64 %183
  store i8 %175, i8* %184, align 1
  br label %185

185:                                              ; preds = %168
  %186 = load i32, i32* %6, align 4
  %187 = add nsw i32 %186, 1
  store i32 %187, i32* %6, align 4
  br label %165

188:                                              ; preds = %165
  br label %189

189:                                              ; preds = %188
  %190 = load i32, i32* %5, align 4
  %191 = add nsw i32 %190, 1
  store i32 %191, i32* %5, align 4
  br label %103

192:                                              ; preds = %103
  store i32 0, i32* %5, align 4
  br label %193

193:                                              ; preds = %203, %192
  %194 = load i32, i32* %5, align 4
  %195 = load i32, i32* %4, align 4
  %196 = icmp slt i32 %194, %195
  br i1 %196, label %197, label %206

197:                                              ; preds = %193
  %198 = load i32, i32* %5, align 4
  %199 = sext i32 %198 to i64
  %200 = getelementptr inbounds [1000 x [13 x i8]], [1000 x [13 x i8]]* %1, i64 0, i64 %199
  %201 = getelementptr inbounds [13 x i8], [13 x i8]* %200, i64 0, i64 0
  %202 = call i32 (i8*, ...) @printf(i8* getelementptr inbounds ([4 x i8], [4 x i8]* @.str, i64 0, i64 0), i8* %201)
  br label %203

203:                                              ; preds = %197
  %204 = load i32, i32* %5, align 4
  %205 = add nsw i32 %204, 1
  store i32 %205, i32* %5, align 4
  br label %193

206:                                              ; preds = %193
  ret void
}

declare dso_local i32 @gets(...) #1

; Function Attrs: nounwind readonly
declare dso_local i64 @strlen(i8*) #2

declare dso_local i32 @printf(i8*, ...) #1


!llvm.module.flags = !{!0}
!llvm.ident = !{!1}

!0 = !{i32 1, !"wchar_size", i32 4}
!1 = !{!"clang version 10.0.0-4ubuntu1 "}
